target datalayout = "e-m:e-p270:32:32-p271:32:32-p272:64:64-i64:64-i128:128-f80:128-n8:16:32:64-S128"
target triple = "x86_64-pc-linux-gnu"

%struct.UTRAN_TDD_NeighbourCells_t = type { i8, i16, i8, i8, i8, [16 x i8] }

@hf_gsm_rlcmac_cell_parameter = internal global i32 0, align 4
@hf_gsm_rlcmac_sync_case_tstd = internal global i32 0, align 4
@hf_gsm_rlcmac_diversity_tdd = internal global i32 0, align 4
@.str.3111 = private unnamed_addr constant [23 x i8] c"TDD_CELL_INFORMATION: \00", align 1

; Function Attrs: null_pointer_is_valid sspstrong uwtable
define internal signext i16 @callback_UTRAN_TDD_compute_TDD_CELL_INFORMATION(ptr noundef %0, ptr noundef %1, ptr noundef %2, ptr noundef %3, i32 noundef %4, i32 noundef %5, ptr noundef %6) #0 {
  %8 = alloca ptr, align 8
  %9 = alloca ptr, align 8
  %10 = alloca ptr, align 8
  %11 = alloca ptr, align 8
  %12 = alloca i32, align 4
  %13 = alloca i32, align 4
  %14 = alloca ptr, align 8
  %15 = alloca ptr, align 8
  %16 = alloca ptr, align 8
  %17 = alloca i32, align 4
  %18 = alloca i32, align 4
  %19 = alloca i32, align 4
  %20 = alloca i32, align 4
  %21 = alloca [64 x i32], align 16
  %22 = alloca i32, align 4
  %23 = alloca i32, align 4
  %24 = alloca i32, align 4
  %25 = alloca i32, align 4
  store ptr %0, ptr %8, align 8
  store ptr %1, ptr %9, align 8
  store ptr %2, ptr %10, align 8
  store ptr %3, ptr %11, align 8
  store i32 %4, ptr %12, align 4
  store i32 %5, ptr %13, align 4
  store ptr %6, ptr %14, align 8
  call void @llvm.lifetime.start.p0(i64 8, ptr %15) #5
  call void @llvm.lifetime.start.p0(i64 8, ptr %16) #5
  %26 = load ptr, ptr %10, align 8
  store ptr %26, ptr %16, align 8
  call void @llvm.lifetime.start.p0(i64 4, ptr %17) #5
  call void @llvm.lifetime.start.p0(i64 4, ptr %18) #5
  call void @llvm.lifetime.start.p0(i64 4, ptr %19) #5
  call void @llvm.lifetime.start.p0(i64 4, ptr %20) #5
  call void @llvm.lifetime.start.p0(i64 256, ptr %21) #5
  call void @llvm.lifetime.start.p0(i64 4, ptr %22) #5
  call void @llvm.lifetime.start.p0(i64 4, ptr %23) #5
  call void @llvm.lifetime.start.p0(i64 4, ptr %24) #5
  call void @llvm.lifetime.start.p0(i64 4, ptr %25) #5
  %27 = load i32, ptr %12, align 4
  store i32 %27, ptr %24, align 4
  %28 = load ptr, ptr %16, align 8
  %29 = getelementptr inbounds nuw %struct.UTRAN_TDD_NeighbourCells_t, ptr %28, i32 0, i32 4
  %30 = load i8, ptr %29, align 2
  %31 = zext i8 %30 to i32
  store i32 %31, ptr %25, align 4
  %32 = load i32, ptr %25, align 4
  %33 = icmp sgt i32 %32, 0
  br i1 %33, label %34, label %153

34:                                               ; preds = %7
  %35 = load ptr, ptr %8, align 8
  %36 = load ptr, ptr %9, align 8
  %37 = load i32, ptr %24, align 4
  %38 = ashr i32 %37, 3
  %39 = load i32, ptr %13, align 4
  %40 = call ptr @proto_tree_add_subtree(ptr noundef %35, ptr noundef %36, i32 noundef %38, i32 noundef 1, i32 noundef %39, ptr noundef null, ptr noundef @.str.3111)
  store ptr %40, ptr %15, align 8
  %41 = load ptr, ptr %16, align 8
  %42 = getelementptr inbounds nuw %struct.UTRAN_TDD_NeighbourCells_t, ptr %41, i32 0, i32 2
  %43 = load i8, ptr %42, align 2
  %44 = icmp ne i8 %43, 0
  br i1 %44, label %45, label %64

45:                                               ; preds = %34
  %46 = load ptr, ptr %8, align 8
  %47 = load i32, ptr @hf_gsm_rlcmac_cell_parameter, align 4
  %48 = load ptr, ptr %9, align 8
  %49 = load i32, ptr %24, align 4
  %50 = ashr i32 %49, 3
  %51 = call ptr @proto_tree_add_uint(ptr noundef %46, i32 noundef %47, ptr noundef %48, i32 noundef %50, i32 noundef 0, i32 noundef 0)
  %52 = load ptr, ptr %8, align 8
  %53 = load i32, ptr @hf_gsm_rlcmac_sync_case_tstd, align 4
  %54 = load ptr, ptr %9, align 8
  %55 = load i32, ptr %24, align 4
  %56 = ashr i32 %55, 3
  %57 = call ptr @proto_tree_add_uint(ptr noundef %52, i32 noundef %53, ptr noundef %54, i32 noundef %56, i32 noundef 0, i32 noundef 0)
  %58 = load ptr, ptr %8, align 8
  %59 = load i32, ptr @hf_gsm_rlcmac_diversity_tdd, align 4
  %60 = load ptr, ptr %9, align 8
  %61 = load i32, ptr %24, align 4
  %62 = ashr i32 %61, 3
  %63 = call ptr @proto_tree_add_uint(ptr noundef %58, i32 noundef %59, ptr noundef %60, i32 noundef %62, i32 noundef 0, i32 noundef 0)
  br label %64

64:                                               ; preds = %45, %34
  %65 = load i32, ptr %25, align 4
  %66 = icmp ne i32 %65, 0
  br i1 %66, label %67, label %152

67:                                               ; preds = %64
  store i32 10, ptr %18, align 4
  store i32 1, ptr %19, align 4
  store i32 0, ptr %20, align 4
  store i32 1, ptr %22, align 4
  br label %68

68:                                               ; preds = %101, %67
  %69 = load i32, ptr %25, align 4
  %70 = icmp sgt i32 %69, 0
  br i1 %70, label %71, label %104

71:                                               ; preds = %68
  %72 = load ptr, ptr %9, align 8
  %73 = load i32, ptr %24, align 4
  %74 = load i32, ptr %18, align 4
  %75 = call i32 @tvb_get_bits(ptr noundef %72, i32 noundef %73, i32 noundef %74, i32 noundef 0)
  %76 = load i32, ptr %22, align 4
  %77 = sext i32 %76 to i64
  %78 = getelementptr [64 x i32], ptr %21, i64 0, i64 %77
  store i32 %75, ptr %78, align 4
  %79 = load i32, ptr %18, align 4
  %80 = load i32, ptr %24, align 4
  %81 = add i32 %80, %79
  store i32 %81, ptr %24, align 4
  %82 = load i32, ptr %18, align 4
  %83 = load i32, ptr %25, align 4
  %84 = sub i32 %83, %82
  store i32 %84, ptr %25, align 4
  %85 = load i32, ptr %22, align 4
  %86 = sext i32 %85 to i64
  %87 = getelementptr [64 x i32], ptr %21, i64 0, i64 %86
  %88 = load i32, ptr %87, align 4
  %89 = icmp eq i32 %88, 0
  br i1 %89, label %90, label %91

90:                                               ; preds = %71
  store i32 0, ptr %25, align 4
  br label %104

91:                                               ; preds = %71
  %92 = load i32, ptr %20, align 4
  %93 = add i32 %92, 1
  store i32 %93, ptr %20, align 4
  %94 = load i32, ptr %19, align 4
  %95 = icmp eq i32 %93, %94
  br i1 %95, label %96, label %101

96:                                               ; preds = %91
  store i32 0, ptr %20, align 4
  %97 = load i32, ptr %19, align 4
  %98 = shl i32 %97, 1
  store i32 %98, ptr %19, align 4
  %99 = load i32, ptr %18, align 4
  %100 = add i32 %99, -1
  store i32 %100, ptr %18, align 4
  br label %101

101:                                              ; preds = %96, %91
  %102 = load i32, ptr %22, align 4
  %103 = add i32 %102, 1
  store i32 %103, ptr %22, align 4
  br label %68, !llvm.loop !14

104:                                              ; preds = %90, %68
  %105 = load i32, ptr %25, align 4
  %106 = icmp slt i32 %105, 0
  br i1 %106, label %107, label %111

107:                                              ; preds = %104
  %108 = load i32, ptr %25, align 4
  %109 = load i32, ptr %24, align 4
  %110 = add i32 %109, %108
  store i32 %110, ptr %24, align 4
  br label %111

111:                                              ; preds = %107, %104
  %112 = load i32, ptr %22, align 4
  %113 = sub i32 %112, 1
  store i32 %113, ptr %23, align 4
  store i32 1, ptr %22, align 4
  br label %114

114:                                              ; preds = %148, %111
  %115 = load i32, ptr %22, align 4
  %116 = load i32, ptr %23, align 4
  %117 = icmp sle i32 %115, %116
  br i1 %117, label %118, label %151

118:                                              ; preds = %114
  %119 = load i32, ptr %22, align 4
  %120 = getelementptr inbounds [64 x i32], ptr %21, i64 0, i64 0
  %121 = call i32 @f_k(i32 noundef %119, ptr noundef %120, i32 noundef 1024)
  store i32 %121, ptr %17, align 4
  %122 = load ptr, ptr %15, align 8
  %123 = load i32, ptr @hf_gsm_rlcmac_cell_parameter, align 4
  %124 = load ptr, ptr %9, align 8
  %125 = load i32, ptr %24, align 4
  %126 = ashr i32 %125, 3
  %127 = load i32, ptr %17, align 4
  %128 = and i32 %127, 127
  %129 = call ptr @proto_tree_add_uint(ptr noundef %122, i32 noundef %123, ptr noundef %124, i32 noundef %126, i32 noundef 0, i32 noundef %128)
  %130 = load ptr, ptr %15, align 8
  %131 = load i32, ptr @hf_gsm_rlcmac_sync_case_tstd, align 4
  %132 = load ptr, ptr %9, align 8
  %133 = load i32, ptr %24, align 4
  %134 = ashr i32 %133, 3
  %135 = load i32, ptr %17, align 4
  %136 = ashr i32 %135, 7
  %137 = and i32 %136, 1
  %138 = call ptr @proto_tree_add_uint(ptr noundef %130, i32 noundef %131, ptr noundef %132, i32 noundef %134, i32 noundef 0, i32 noundef %137)
  %139 = load ptr, ptr %15, align 8
  %140 = load i32, ptr @hf_gsm_rlcmac_diversity_tdd, align 4
  %141 = load ptr, ptr %9, align 8
  %142 = load i32, ptr %24, align 4
  %143 = ashr i32 %142, 3
  %144 = load i32, ptr %17, align 4
  %145 = ashr i32 %144, 8
  %146 = and i32 %145, 1
  %147 = call ptr @proto_tree_add_uint(ptr noundef %139, i32 noundef %140, ptr noundef %141, i32 noundef %143, i32 noundef 0, i32 noundef %146)
  br label %148

148:                                              ; preds = %118
  %149 = load i32, ptr %22, align 4
  %150 = add i32 %149, 1
  store i32 %150, ptr %22, align 4
  br label %114, !llvm.loop !15

151:                                              ; preds = %114
  br label %152

152:                                              ; preds = %151, %64
  br label %153

153:                                              ; preds = %152, %7
  %154 = load i32, ptr %24, align 4
  %155 = load i32, ptr %12, align 4
  %156 = sub i32 %154, %155
  %157 = trunc i32 %156 to i16
  call void @llvm.lifetime.end.p0(i64 4, ptr %25) #5
  call void @llvm.lifetime.end.p0(i64 4, ptr %24) #5
  call void @llvm.lifetime.end.p0(i64 4, ptr %23) #5
  call void @llvm.lifetime.end.p0(i64 4, ptr %22) #5
  call void @llvm.lifetime.end.p0(i64 256, ptr %21) #5
  call void @llvm.lifetime.end.p0(i64 4, ptr %20) #5
  call void @llvm.lifetime.end.p0(i64 4, ptr %19) #5
  call void @llvm.lifetime.end.p0(i64 4, ptr %18) #5
  call void @llvm.lifetime.end.p0(i64 4, ptr %17) #5
  call void @llvm.lifetime.end.p0(i64 8, ptr %16) #5
  call void @llvm.lifetime.end.p0(i64 8, ptr %15) #5
  ret i16 %157
}