; Function Attrs: null_pointer_is_valid sspstrong uwtable
define internal signext i16 @callback_UTRAN_TDD_compute_TDD_CELL_INFORMATION(ptr noundef %0, ptr noundef %1, ptr noundef readonly captures(none) %2, ptr readnone captures(none) %3, i32 noundef %4, i32 noundef %5, ptr readnone captures(none) %6) #0 {
  %8 = alloca [64 x i32], align 16
  call void @llvm.lifetime.start.p0(i64 256, ptr nonnull %8) #8
  %9 = getelementptr inbounds nuw i8, ptr %2, i64 6
  %10 = load i8, ptr %9, align 2
  %.fr72 = freeze i8 %10
  %11 = zext i8 %.fr72 to i32
  %.not = icmp eq i8 %.fr72, 0
  br i1 %.not, label %.loopexit, label %12

12:                                               ; preds = %7
  %13 = ashr i32 %4, 3
  %14 = tail call ptr @proto_tree_add_subtree(ptr noundef %0, ptr noundef %1, i32 noundef %13, i32 noundef 1, i32 noundef %5, ptr noundef null, ptr noundef nonnull @.str.3111)
  %15 = getelementptr inbounds nuw i8, ptr %2, i64 4
  %16 = load i8, ptr %15, align 2
  %.not67 = icmp eq i8 %16, 0
  br i1 %.not67, label %.preheader, label %17

17:                                               ; preds = %12
  %18 = load i32, ptr @hf_gsm_rlcmac_cell_parameter, align 4
  %19 = tail call ptr @proto_tree_add_uint(ptr noundef %0, i32 noundef %18, ptr noundef %1, i32 noundef %13, i32 noundef 0, i32 noundef 0)
  %20 = load i32, ptr @hf_gsm_rlcmac_sync_case_tstd, align 4
  %21 = tail call ptr @proto_tree_add_uint(ptr noundef %0, i32 noundef %20, ptr noundef %1, i32 noundef %13, i32 noundef 0, i32 noundef 0)
  %22 = load i32, ptr @hf_gsm_rlcmac_diversity_tdd, align 4
  %23 = tail call ptr @proto_tree_add_uint(ptr noundef %0, i32 noundef %22, ptr noundef %1, i32 noundef %13, i32 noundef 0, i32 noundef 0)
  br label %.preheader

.preheader:                                       ; preds = %12, %17
  br label %24

24:                                               ; preds = %.preheader, %30
  %.083 = phi i32 [ %31, %30 ], [ %11, %.preheader ]
  %.15682 = phi i32 [ %28, %30 ], [ %4, %.preheader ]
  %.05781 = phi i32 [ %.158, %30 ], [ 10, %.preheader ]
  %.05980 = phi i32 [ %36, %30 ], [ 1, %.preheader ]
  %.06179 = phi i32 [ %.162, %30 ], [ 0, %.preheader ]
  %.06378 = phi i32 [ %.164, %30 ], [ 1, %.preheader ]
  %25 = tail call i32 @tvb_get_bits(ptr noundef %1, i32 noundef %.15682, i32 noundef %.05781, i32 noundef 0)
  %26 = sext i32 %.05980 to i64
  %27 = getelementptr [64 x i32], ptr %8, i64 0, i64 %26
  store i32 %25, ptr %27, align 4
  %28 = add i32 %.15682, %.05781
  %29 = icmp eq i32 %25, 0
  br i1 %29, label %.thread.loopexit, label %30

30:                                               ; preds = %24
  %31 = sub i32 %.083, %.05781
  %32 = add i32 %.06179, 1
  %33 = icmp eq i32 %32, %.06378
  %34 = zext i1 %33 to i32
  %.164 = shl i32 %.06378, %34
  %.162 = select i1 %33, i32 0, i32 %32
  %35 = sext i1 %33 to i32
  %.158 = add i32 %.05781, %35
  %36 = add i32 %.05980, 1
  %37 = icmp sgt i32 %31, 0
  br i1 %37, label %24, label %38, !llvm.loop !12

38:                                               ; preds = %30
  %39 = add i32 %.15682, %.083
  br label %.thread

.thread.loopexit:                                 ; preds = %24
  %40 = add i32 %.05980, -1
  br label %.thread

.thread:                                          ; preds = %.thread.loopexit, %38
  %.05977 = phi i32 [ %.05980, %38 ], [ %40, %.thread.loopexit ]
  %41 = phi i32 [ %39, %38 ], [ %28, %.thread.loopexit ]
  %.not6884 = icmp slt i32 %.05977, 1
  br i1 %.not6884, label %.loopexit, label %.lr.ph

.lr.ph:                                           ; preds = %.thread
  %42 = ashr i32 %41, 3
  br label %43

43:                                               ; preds = %.lr.ph, %43
  %.16085 = phi i32 [ 1, %.lr.ph ], [ %56, %43 ]
  %44 = call i32 @f_k(i32 noundef %.16085, ptr noundef nonnull %8, i32 noundef 1024)
  %45 = load i32, ptr @hf_gsm_rlcmac_cell_parameter, align 4
  %46 = and i32 %44, 127
  %47 = call ptr @proto_tree_add_uint(ptr noundef %14, i32 noundef %45, ptr noundef %1, i32 noundef %42, i32 noundef 0, i32 noundef %46)
  %48 = load i32, ptr @hf_gsm_rlcmac_sync_case_tstd, align 4
  %49 = lshr i32 %44, 7
  %50 = and i32 %49, 1
  %51 = call ptr @proto_tree_add_uint(ptr noundef %14, i32 noundef %48, ptr noundef %1, i32 noundef %42, i32 noundef 0, i32 noundef %50)
  %52 = load i32, ptr @hf_gsm_rlcmac_diversity_tdd, align 4
  %53 = lshr i32 %44, 8
  %54 = and i32 %53, 1
  %55 = call ptr @proto_tree_add_uint(ptr noundef %14, i32 noundef %52, ptr noundef %1, i32 noundef %42, i32 noundef 0, i32 noundef %54)
  %56 = add i32 %.16085, 1
  %.not68 = icmp sgt i32 %56, %.05977
  br i1 %.not68, label %.loopexit, label %43, !llvm.loop !13

.loopexit:                                        ; preds = %43, %.thread, %7
  %.055 = phi i32 [ %4, %7 ], [ %41, %.thread ], [ %41, %43 ]
  %57 = sub i32 %.055, %4
  %58 = trunc i32 %57 to i16
  call void @llvm.lifetime.end.p0(i64 256, ptr nonnull %8) #8
  ret i16 %58
}